-----BEGIN CERTIFICATE-----
MIIDQzCCAiugAwIBAgIJAJavyoKughTIMA0GCSqGSIb3DQEBCwUAMFgxCzAJBgNV
BAYTAlVTMRMwEQYDVQQIDApDYWxpZm9ybmlhMQ8wDQYDVQQHDAZJcnZpbmUxETAP
BgNVBAoMCEludGVyc2V0MRAwDgYDVQQDDAdSb290LWNhMB4XDTE4MDkyMTExNTY1
N1oXDTI4MDkxODExNTY1N1owWDELMAkGA1UEBhMCVVMxEzARBgNVBAgMCkNhbGlm
b3JuaWExDzANBgNVBAcMBklydmluZTERMA8GA1UECgwISW50ZXJzZXQxEDAOBgNV
BAMMB1Jvb3QtY2EwggEiMA0GCSqGSIb3DQEBAQUAA4IBDwAwggEKAoIBAQD1D1N2
4st4Pw2Qm5+uhETFlFKAhN06CVyQ0VhYGnhMJ6f/BJZpWGNDP5Jlxdwv0YcL4g1k
8sEFcu5rsxJ/bZDTQR5UdJTMIbvITLd8Nyjc/s2yRyY9O7hDa4+VacfouB8k0/dL
QCox2r16sMidUPwDlW7U6PNRz1gPwtXAIE2cMrtgrmx9WxdnvztRDIKKvGTXP5Kl
2DocpPqKk80cvQm2JPrSQCmAOQMtWQPgG7BL6nDfuPyZ3822j9Dbc4zroJ0Plgp8
h05fY+NGrNDypoOWtzPCJ9sUtkdgEmLAZxcbGDyNcqweRhYGuOp6HDAFiS2gd7rY
VprQOGds3mDHCiNPAgMBAAGjEDAOMAwGA1UdEwQFMAMBAf8wDQYJKoZIhvcNAQEL
BQADggEBADjBVdfIEzhgJNmb3up3Su5+D7XrxjLkD0okSQwvJP7oy3RiU73IbZEU
WU7IoLXxJsemI7Phdj0jpdeiV4ij5kU7XXUj5IrpAN9Z0yCJgqkcan/IcKn5tfng
ez0YOz8joRQRJPg4lDEudAodB7uUBdbUtVNeBuhxkG+Dw4H1B92Fe3VHAHn9h3bV
fZv7MEF9xoF2SB/4yxsjM30mBYF1a3cTT1Wj72fwePE9x5xvFQqd8M+HzBobF6bi
XAhZCSLNZGct/LW7Vjtm5ZHgJpqB856uvzWPML/AtJF3ArUcJE0cv0JW1Sb8GiNH
qVAKJJ7XJ8YIICL4kZEKjVdwtP4Oemc=
-----END CERTIFICATE-----

-----BEGIN CERTIFICATE-----
MIIDMzCCAhugAwIBAgICEAAwDQYJKoZIhvcNAQELBQAwWDELMAkGA1UEBhMCVVMx
EzARBgNVBAgMCkNhbGlmb3JuaWExDzANBgNVBAcMBklydmluZTERMA8GA1UECgwI
SW50ZXJzZXQxEDAOBgNVBAMMB1Jvb3QtY2EwHhcNMTgwOTIxMTE1NjU3WhcNMTkw
OTIxMTE1NjU3WjBPMQswCQYDVQQGEwJVUzETMBEGA1UECAwKQ2FsaWZvcm5pYTER
MA8GA1UECgwISW50ZXJzZXQxGDAWBgNVBAMMD0ludGVybWVkaWF0ZS1jYTCCASIw
DQYJKoZIhvcNAQEBBQADggEPADCCAQoCggEBAMZbQ3kmwMttxJdlQHOkYm1dUgZp
9lM3bgcIqBKlI3tDMjWoBtEEromE9kohwdWY9zVmhCtPGktw1hx21ldyEf4b+xh1
a3Y2q6vBGZhezcGq73xDfbA+DjfXrZZ7SKs1D0qBfohThrL+mpxCCW6oNB5WKMeA
G1SvaIj0ZIa6PWYlr45WezuKaWLwyhDQHPqtntL4c7oGTFOWR9sG04Bw8YkcudJA
1KJ2sKZqcHk7XBvFfvaJv5/DMQfIj8XTHVQxaF/4m0gvVLUq68U9Pd1fTdDTVzZ7
tb1zDV1yKAWFlCv9Hndp5XAZKUC0J+2BEy9cz53bl+i4Iq9jHad7IRZ2mSECAwEA
AaMQMA4wDAYDVR0TBAUwAwEB/zANBgkqhkiG9w0BAQsFAAOCAQEApKaawitY79JX
g6eeUMscNNV9FZlMw6fH7xSMPnPo7gF2yO9JYs36HAsho1p1PFpfvzfLIonDOHva
Se1fZjxI0Tq8zn7axOIvexreP4ctBdWMaFXGHzF5pU8YR/jYIUTzdJASaImZER9c
hrB5VwnGJJkJ0LDJMuTRIFGO2yIvqpYe8CuC2h1GbNZX62+4AX4Tu9ILoR/JAAxL
lbSRe+afL281G/k/HdmHwH2rTYMvtnqAqHyedvFLQldCqrT2JZs/A+FtKjPbdGvk
FhDHpEM/t5N4NAf6s2qp5QqlfVEF9/6VLA9tKup+VF/zD9LRtJyUuy1Jv6Uaau8O
j1vvgaDqVg==
-----END CERTIFICATE-----

Certificate:
    Data:
        Version: 1 (0x0)
        Serial Number: 4097 (0x1001)
    Signature Algorithm: sha256WithRSAEncryption
        Issuer: C=US, ST=California, O=Interset, CN=Intermediate-ca
        Validity
            Not Before: Sep 21 11:56:58 2018 GMT
            Not After : Sep 21 11:56:58 2019 GMT
        Subject: C=US, ST=California, O=Interset, CN=cdh513-i552-frbny01.interset.com
        Subject Public Key Info:
            Public Key Algorithm: rsaEncryption
                Public-Key: (2048 bit)
                Modulus:
                    00:c2:05:4e:e3:f0:06:ee:b2:2a:82:70:6b:5b:3e:
                    c5:fe:6a:89:5a:50:30:e8:70:55:04:a6:1a:94:ef:
                    89:7b:ba:cf:20:ce:ec:8f:5d:5f:dd:81:e6:bd:0c:
                    e5:20:26:46:0c:61:51:2a:fa:34:15:5b:70:45:7d:
                    15:2b:b3:2c:9e:ff:86:ad:c9:b0:b9:b0:49:68:3c:
                    bf:ed:f4:f8:9b:41:d6:4e:a7:d5:40:05:19:bc:b1:
                    c2:28:78:70:76:2c:f3:69:34:3a:81:6b:6f:e3:0e:
                    3b:78:20:30:9a:97:0f:97:d8:ec:3b:35:b5:1e:16:
                    bd:e8:54:5e:dc:a2:65:7c:d1:8d:39:e1:c4:ce:a4:
                    7d:fd:d7:d8:7a:61:13:89:61:39:bc:0c:57:49:cd:
                    f3:87:ec:82:8d:ea:ed:e2:36:e8:a5:38:e4:58:88:
                    4c:ae:3b:11:4c:c4:21:e9:7d:0e:d5:8b:f9:64:fb:
                    54:c1:6e:cc:22:f5:7e:c3:d9:ab:69:62:71:98:2c:
                    5f:7f:50:31:08:18:29:58:6f:49:7b:1e:ea:7b:cd:
                    5a:36:21:c4:a7:24:44:46:a1:92:ee:a4:63:13:e2:
                    80:84:95:63:dc:c8:ab:76:0c:f2:b6:13:33:85:32:
                    30:1a:6f:e0:bf:79:c9:3d:20:25:75:e4:d6:ac:36:
                    cc:13
                Exponent: 65537 (0x10001)
    Signature Algorithm: sha256WithRSAEncryption
         1f:bd:22:cd:96:47:f0:31:dc:55:6f:ff:f8:b4:4d:05:a4:f0:
         3b:58:de:f8:1e:8d:17:3c:e5:ca:38:3a:7e:c4:e2:32:d7:c1:
         fd:37:da:ba:b2:3f:bb:54:c8:47:08:60:e4:02:99:0f:be:da:
         95:c5:14:1c:03:e5:60:65:8b:63:ae:33:bd:dc:e8:78:9b:40:
         ff:ad:25:0c:41:53:09:9d:f7:c8:31:cc:35:4a:5b:45:03:4e:
         13:75:12:d9:a3:fb:19:a6:73:4e:91:27:2f:19:f0:e6:74:0f:
         fa:8d:82:1e:5a:10:28:06:8f:66:4b:3b:ac:ef:54:d3:b5:8c:
         82:c7:8c:73:94:87:d0:bb:3e:93:9d:6f:b4:a8:2d:c9:b7:6d:
         7e:7c:07:f5:1f:18:cc:83:a9:07:af:bd:68:71:9c:8e:54:8c:
         d7:f5:83:d5:6e:16:22:a3:88:57:5a:8d:8f:12:ab:6c:8d:f4:
         89:b8:1a:29:66:d0:74:72:b7:21:a6:af:4a:65:50:4f:02:9f:
         83:d9:07:bf:8c:33:2b:9b:b5:c4:f2:cf:27:07:3f:20:91:c1:
         7b:18:c5:46:a5:95:51:5a:94:05:86:90:42:0c:37:f2:a1:2e:
         cb:a4:bc:76:77:90:ca:58:84:aa:31:65:c1:25:78:25:40:31:
         ce:bb:dd:43
-----BEGIN CERTIFICATE-----
MIIDJDCCAgwCAhABMA0GCSqGSIb3DQEBCwUAME8xCzAJBgNVBAYTAlVTMRMwEQYD
VQQIDApDYWxpZm9ybmlhMREwDwYDVQQKDAhJbnRlcnNldDEYMBYGA1UEAwwPSW50
ZXJtZWRpYXRlLWNhMB4XDTE4MDkyMTExNTY1OFoXDTE5MDkyMTExNTY1OFowYDEL
MAkGA1UEBhMCVVMxEzARBgNVBAgMCkNhbGlmb3JuaWExETAPBgNVBAoMCEludGVy
c2V0MSkwJwYDVQQDDCBjZGg1MTMtaTU1Mi1mcmJueTAxLmludGVyc2V0LmNvbTCC
ASIwDQYJKoZIhvcNAQEBBQADggEPADCCAQoCggEBAMIFTuPwBu6yKoJwa1s+xf5q
iVpQMOhwVQSmGpTviXu6zyDO7I9dX92B5r0M5SAmRgxhUSr6NBVbcEV9FSuzLJ7/
hq3JsLmwSWg8v+30+JtB1k6n1UAFGbyxwih4cHYs82k0OoFrb+MOO3ggMJqXD5fY
7Ds1tR4WvehUXtyiZXzRjTnhxM6kff3X2HphE4lhObwMV0nN84fsgo3q7eI26KU4
5FiITK47EUzEIel9DtWL+WT7VMFuzCL1fsPZq2licZgsX39QMQgYKVhvSXse6nvN
WjYhxKckREahku6kYxPigISVY9zIq3YM8rYTM4UyMBpv4L95yT0gJXXk1qw2zBMC
AwEAATANBgkqhkiG9w0BAQsFAAOCAQEAH70izZZH8DHcVW//+LRNBaTwO1je+B6N
Fzzlyjg6fsTiMtfB/TfaurI/u1TIRwhg5AKZD77alcUUHAPlYGWLY64zvdzoeJtA
/60lDEFTCZ33yDHMNUpbRQNOE3US2aP7GaZzTpEnLxnw5nQP+o2CHloQKAaPZks7
rO9U07WMgseMc5SH0Ls+k51vtKgtybdtfnwH9R8YzIOpB6+9aHGcjlSM1/WD1W4W
IqOIV1qNjxKrbI30ibgaKWbQdHK3IaavSmVQTwKfg9kHv4wzK5u1xPLPJwc/IJHB
exjFRqWVUVqUBYaQQgw38qEuy6S8dneQyliEqjFlwSV4JUAxzrvdQw==
-----END CERTIFICATE-----

Certificate:
    Data:
        Version: 1 (0x0)
        Serial Number: 4098 (0x1002)
    Signature Algorithm: sha256WithRSAEncryption
        Issuer: C=US, ST=California, O=Interset, CN=Intermediate-ca
        Validity
            Not Before: Sep 21 11:57:00 2018 GMT
            Not After : Sep 21 11:57:00 2019 GMT
        Subject: C=US, ST=California, O=Interset, CN=cdh513-i552-frbny02.interset.com
        Subject Public Key Info:
            Public Key Algorithm: rsaEncryption
                Public-Key: (2048 bit)
                Modulus:
                    00:b9:7c:ef:3f:ce:81:0c:51:fb:41:d3:09:09:a2:
                    24:14:88:e6:8f:7c:b2:07:2b:92:46:f1:74:58:5a:
                    57:32:f9:25:49:a3:31:66:96:87:48:00:24:a8:9f:
                    a6:b4:2b:25:b2:b5:bd:af:da:eb:58:c1:19:02:98:
                    ec:38:95:b9:53:aa:53:10:43:b9:30:bf:2c:fb:d8:
                    e5:a9:ec:c2:e1:32:d0:5d:94:12:a4:bf:a3:74:61:
                    91:29:ea:0a:ff:e0:3c:b6:5e:85:44:87:c0:b2:3a:
                    d9:93:43:de:7e:69:4c:e2:0c:c2:95:1d:07:29:69:
                    43:d9:8f:70:1f:ad:e2:d5:80:fd:c8:93:a3:48:90:
                    49:d4:ba:45:14:f3:89:5b:e8:3e:c2:d7:16:0a:a6:
                    f2:d8:f3:6e:fe:9b:a8:c8:65:2f:ed:eb:17:b0:52:
                    c2:69:ee:f0:f7:7b:10:67:16:4a:2d:27:75:d7:ab:
                    a5:e6:43:ec:f2:e5:5a:e8:76:c2:0a:e4:14:9e:21:
                    24:8a:bf:a8:88:d5:65:b2:8a:ca:ea:de:45:e9:58:
                    d6:2d:61:8b:12:10:49:fb:5d:d4:c7:04:73:68:4c:
                    98:b1:d0:b8:eb:85:83:48:68:04:29:73:e9:d3:09:
                    e3:5c:60:54:4f:d9:0f:15:5b:15:55:76:1f:38:40:
                    3a:55
                Exponent: 65537 (0x10001)
    Signature Algorithm: sha256WithRSAEncryption
         9b:a9:34:1a:b6:7d:88:f1:bc:a0:c2:e6:9f:a8:93:ac:16:67:
         98:0e:ef:28:1d:82:d8:a0:b6:06:77:f5:6b:9f:42:61:41:c2:
         65:57:bf:72:ea:72:d0:3b:bd:f4:a3:56:19:34:3c:5a:ad:9e:
         8e:ce:67:83:a8:e5:7c:89:83:8f:8c:9e:70:fc:e8:d4:75:22:
         1c:b8:3f:f4:22:10:f2:f8:2f:7c:94:cd:c9:22:42:bb:4e:14:
         a1:92:c1:ba:4e:0b:5c:01:6e:07:38:53:d8:6e:3a:98:0d:28:
         ff:fb:dd:b8:d9:35:0d:7e:9d:03:d0:75:c5:51:d3:d6:25:38:
         41:4e:a6:4f:60:3e:19:e3:b2:50:f8:84:c5:73:46:86:d1:06:
         46:f0:36:ad:49:68:58:a9:82:4b:45:5d:f3:67:ed:52:65:7f:
         e9:36:ad:ac:52:fd:06:e2:5f:d7:db:0c:2c:1f:a5:72:30:1f:
         f4:44:83:4b:56:1d:e3:6d:a7:6b:ab:74:5a:37:06:db:a6:06:
         76:9f:d7:1f:c0:89:00:fb:f7:6f:02:83:96:e8:f4:2c:72:63:
         9f:b3:4e:5e:42:58:d0:c2:b8:74:b9:ad:05:10:4c:dc:13:91:
         92:d3:de:bc:1a:b0:d0:51:3b:a1:ac:ee:7e:f2:bd:04:5a:1a:
         74:f4:b6:7a
-----BEGIN CERTIFICATE-----
MIIDJDCCAgwCAhACMA0GCSqGSIb3DQEBCwUAME8xCzAJBgNVBAYTAlVTMRMwEQYD
VQQIDApDYWxpZm9ybmlhMREwDwYDVQQKDAhJbnRlcnNldDEYMBYGA1UEAwwPSW50
ZXJtZWRpYXRlLWNhMB4XDTE4MDkyMTExNTcwMFoXDTE5MDkyMTExNTcwMFowYDEL
MAkGA1UEBhMCVVMxEzARBgNVBAgMCkNhbGlmb3JuaWExETAPBgNVBAoMCEludGVy
c2V0MSkwJwYDVQQDDCBjZGg1MTMtaTU1Mi1mcmJueTAyLmludGVyc2V0LmNvbTCC
ASIwDQYJKoZIhvcNAQEBBQADggEPADCCAQoCggEBALl87z/OgQxR+0HTCQmiJBSI
5o98sgcrkkbxdFhaVzL5JUmjMWaWh0gAJKifprQrJbK1va/a61jBGQKY7DiVuVOq
UxBDuTC/LPvY5answuEy0F2UEqS/o3RhkSnqCv/gPLZehUSHwLI62ZND3n5pTOIM
wpUdBylpQ9mPcB+t4tWA/ciTo0iQSdS6RRTziVvoPsLXFgqm8tjzbv6bqMhlL+3r
F7BSwmnu8Pd7EGcWSi0ndderpeZD7PLlWuh2wgrkFJ4hJIq/qIjVZbKKyureRelY
1i1hixIQSftd1McEc2hMmLHQuOuFg0hoBClz6dMJ41xgVE/ZDxVbFVV2HzhAOlUC
AwEAATANBgkqhkiG9w0BAQsFAAOCAQEAm6k0GrZ9iPG8oMLmn6iTrBZnmA7vKB2C
2KC2Bnf1a59CYUHCZVe/cupy0Du99KNWGTQ8Wq2ejs5ng6jlfImDj4yecPzo1HUi
HLg/9CIQ8vgvfJTNySJCu04UoZLBuk4LXAFuBzhT2G46mA0o//vduNk1DX6dA9B1
xVHT1iU4QU6mT2A+GeOyUPiExXNGhtEGRvA2rUloWKmCS0Vd82ftUmV/6TatrFL9
BuJf19sMLB+lcjAf9ESDS1Yd422na6t0WjcG26YGdp/XH8CJAPv3bwKDluj0LHJj
n7NOXkJY0MK4dLmtBRBM3BORktPevBqw0FE7oazufvK9BFoadPS2eg==
-----END CERTIFICATE-----

Certificate:
    Data:
        Version: 1 (0x0)
        Serial Number: 4099 (0x1003)
    Signature Algorithm: sha256WithRSAEncryption
        Issuer: C=US, ST=California, O=Interset, CN=Intermediate-ca
        Validity
            Not Before: Sep 21 11:57:01 2018 GMT
            Not After : Sep 21 11:57:01 2019 GMT
        Subject: C=US, ST=California, O=Interset, CN=cdh513-i552-frbny03.interset.com
        Subject Public Key Info:
            Public Key Algorithm: rsaEncryption
                Public-Key: (2048 bit)
                Modulus:
                    00:b2:6b:0d:a7:52:59:7f:3b:ae:2a:ce:6e:54:18:
                    63:d1:84:76:1d:cc:49:c1:a3:10:b7:8c:35:30:33:
                    f8:2e:ec:96:7b:ca:08:ed:5e:78:81:57:db:90:93:
                    9a:97:47:a0:58:2b:c3:fc:00:3e:31:d8:90:46:b2:
                    ef:7c:74:53:9a:c3:20:50:2c:1a:53:5b:38:c5:14:
                    9e:ed:f6:9a:c3:9b:81:bd:ba:e5:0d:62:ef:af:c6:
                    46:c4:36:5d:61:f9:ff:02:82:69:6b:cd:1e:96:75:
                    bf:dd:97:2a:f9:3f:dc:1a:9a:c7:23:31:00:d8:6d:
                    07:6e:95:6f:3a:cc:45:c6:54:49:06:d6:ad:36:29:
                    14:99:a5:e5:ed:d1:2a:09:53:f4:92:61:22:9e:f1:
                    93:21:93:e0:aa:9e:00:6a:3a:6b:01:18:5b:bc:1b:
                    e4:70:6a:f5:00:14:5a:b5:e6:e9:78:31:04:53:e1:
                    0b:f5:ac:17:0d:75:9e:a1:53:a5:22:7f:ee:ec:f0:
                    bd:51:b4:f1:f3:09:27:1a:d7:d1:0a:99:bd:55:55:
                    b9:76:0f:e0:53:a4:ce:81:5d:4e:26:1d:d3:7d:7d:
                    5a:75:57:7b:04:59:9b:ed:f4:b2:4d:5e:fa:50:67:
                    84:bf:1a:37:e2:b5:b6:aa:39:50:c6:bb:8c:1a:17:
                    18:a3
                Exponent: 65537 (0x10001)
    Signature Algorithm: sha256WithRSAEncryption
         69:5d:05:c5:e1:87:c6:e4:1e:72:f6:bd:20:50:ed:43:0d:96:
         14:74:c7:83:9f:76:00:9d:0f:a1:2e:b3:d6:47:da:72:9a:30:
         3b:ad:2f:dd:b2:3c:f5:5b:d2:b6:18:39:66:a6:db:47:8b:05:
         fc:f6:55:7f:86:6b:1e:b9:64:3f:76:11:e6:23:10:7d:ec:8c:
         b4:d3:d6:c3:f5:d9:47:c5:04:d8:3f:6a:fd:d6:24:b1:de:d6:
         47:a7:37:76:eb:c4:6e:11:6d:fc:43:a9:f6:93:f2:c8:ac:82:
         5d:57:46:dd:c1:1f:b6:c1:9c:7b:9a:ca:20:ef:b3:5d:02:a6:
         4c:dd:93:f8:9c:5c:12:28:61:f2:77:d4:d0:83:76:d0:21:0b:
         d7:e4:7d:b8:0f:c0:34:54:d2:58:d5:73:cd:39:69:b1:ec:cc:
         45:5a:a5:c3:63:62:33:16:39:49:70:82:3d:8e:5b:9f:2c:88:
         4f:74:49:7f:14:76:5b:f9:6c:24:c5:58:e3:7c:79:ac:45:68:
         c5:5e:1e:40:73:80:74:ae:4d:e2:86:a0:77:71:22:dd:af:08:
         f1:03:ee:98:b7:b0:af:8f:28:24:03:13:2d:58:46:18:0a:34:
         a1:64:9c:31:92:91:7e:9f:60:cc:1f:a8:4e:71:94:b9:a1:47:
         89:d5:4e:de
-----BEGIN CERTIFICATE-----
MIIDJDCCAgwCAhADMA0GCSqGSIb3DQEBCwUAME8xCzAJBgNVBAYTAlVTMRMwEQYD
VQQIDApDYWxpZm9ybmlhMREwDwYDVQQKDAhJbnRlcnNldDEYMBYGA1UEAwwPSW50
ZXJtZWRpYXRlLWNhMB4XDTE4MDkyMTExNTcwMVoXDTE5MDkyMTExNTcwMVowYDEL
MAkGA1UEBhMCVVMxEzARBgNVBAgMCkNhbGlmb3JuaWExETAPBgNVBAoMCEludGVy
c2V0MSkwJwYDVQQDDCBjZGg1MTMtaTU1Mi1mcmJueTAzLmludGVyc2V0LmNvbTCC
ASIwDQYJKoZIhvcNAQEBBQADggEPADCCAQoCggEBALJrDadSWX87rirOblQYY9GE
dh3MScGjELeMNTAz+C7slnvKCO1eeIFX25CTmpdHoFgrw/wAPjHYkEay73x0U5rD
IFAsGlNbOMUUnu32msObgb265Q1i76/GRsQ2XWH5/wKCaWvNHpZ1v92XKvk/3Bqa
xyMxANhtB26VbzrMRcZUSQbWrTYpFJml5e3RKglT9JJhIp7xkyGT4KqeAGo6awEY
W7wb5HBq9QAUWrXm6XgxBFPhC/WsFw11nqFTpSJ/7uzwvVG08fMJJxrX0QqZvVVV
uXYP4FOkzoFdTiYd0319WnVXewRZm+30sk1e+lBnhL8aN+K1tqo5UMa7jBoXGKMC
AwEAATANBgkqhkiG9w0BAQsFAAOCAQEAaV0FxeGHxuQecva9IFDtQw2WFHTHg592
AJ0PoS6z1kfacpowO60v3bI89VvSthg5ZqbbR4sF/PZVf4ZrHrlkP3YR5iMQfeyM
tNPWw/XZR8UE2D9q/dYksd7WR6c3duvEbhFt/EOp9pPyyKyCXVdG3cEftsGce5rK
IO+zXQKmTN2T+JxcEihh8nfU0IN20CEL1+R9uA/ANFTSWNVzzTlpsezMRVqlw2Ni
MxY5SXCCPY5bnyyIT3RJfxR2W/lsJMVY43x5rEVoxV4eQHOAdK5N4oagd3Ei3a8I
8QPumLewr48oJAMTLVhGGAo0oWScMZKRfp9gzB+oTnGUuaFHidVO3g==
-----END CERTIFICATE-----

Certificate:
    Data:
        Version: 1 (0x0)
        Serial Number: 4100 (0x1004)
    Signature Algorithm: sha256WithRSAEncryption
        Issuer: C=US, ST=California, O=Interset, CN=Intermediate-ca
        Validity
            Not Before: Sep 21 11:57:02 2018 GMT
            Not After : Sep 21 11:57:02 2019 GMT
        Subject: C=US, ST=California, O=Interset, CN=cdh513-i552-frbny04.interset.com
        Subject Public Key Info:
            Public Key Algorithm: rsaEncryption
                Public-Key: (2048 bit)
                Modulus:
                    00:c3:31:dd:fa:eb:22:f7:22:70:c3:6c:fe:24:81:
                    d4:fe:31:c9:59:20:3e:58:75:e5:ec:97:63:8b:5a:
                    97:38:52:4c:0e:16:2e:1a:ab:83:72:83:ea:31:95:
                    29:c6:92:19:3a:65:34:af:90:e7:67:a9:df:5c:8e:
                    72:27:d3:24:93:90:8a:c1:0d:44:ca:b6:f7:8f:93:
                    d8:29:27:0b:92:5f:dc:0d:e5:77:be:71:bf:24:bf:
                    e3:f4:c9:51:85:26:ca:67:49:ba:2b:9f:94:79:26:
                    2b:7a:e7:fe:c9:96:39:e1:b6:bc:a2:07:73:73:f7:
                    1c:f2:35:db:b6:cd:6e:a3:bb:90:e6:f9:62:06:24:
                    8a:4e:32:f8:a9:3b:3f:86:6c:95:63:57:d3:43:b1:
                    2f:61:de:0b:da:a1:48:c0:b0:f5:a3:7d:02:46:e4:
                    1b:20:0a:51:bf:02:95:3d:cc:7b:39:74:e6:25:1f:
                    64:32:4c:08:b3:8e:5e:82:3d:0c:f2:3f:47:98:c2:
                    f0:9b:08:d5:98:22:3d:ef:71:01:e0:60:9a:4d:8f:
                    ce:f2:e0:0c:9e:c3:46:ab:ca:68:e4:e6:2f:50:69:
                    df:39:d6:d2:f3:b5:f3:db:40:dc:70:97:4c:94:f6:
                    31:9c:63:1c:77:f1:87:d2:84:ff:c9:c2:b1:f8:82:
                    04:ab
                Exponent: 65537 (0x10001)
    Signature Algorithm: sha256WithRSAEncryption
         41:2b:00:91:58:20:12:71:03:e7:69:1b:8a:6f:2c:b4:45:84:
         34:fb:27:8a:fd:79:80:62:b1:bd:9b:6e:f2:50:77:5c:5a:fd:
         f0:f9:fa:20:1d:a0:d9:6c:db:17:f5:08:34:91:bb:cf:10:b5:
         07:2c:92:fc:ce:16:67:b2:d3:90:b5:2a:f5:c8:6f:06:84:66:
         6e:82:05:7f:b6:9c:32:5e:41:8c:80:1b:23:90:25:d9:8f:be:
         46:ac:d1:6e:69:cd:2b:64:19:28:c6:be:76:1d:ae:88:69:d3:
         98:bb:91:94:79:91:af:61:2a:30:b4:35:a3:f8:c1:f9:66:a2:
         eb:fa:cc:de:fc:b9:7c:37:b2:8f:c6:2a:8b:70:ff:0c:fe:e6:
         67:f7:f1:50:ee:6a:ea:bb:e4:2c:c4:0c:3c:90:55:d7:cb:17:
         e9:d5:24:9b:bd:c4:10:ac:19:e4:a5:da:e9:c4:74:0d:03:9c:
         02:7e:59:d6:00:52:8b:a0:4b:eb:90:f4:3f:70:c5:b6:09:29:
         ff:c8:49:83:e2:62:ef:b3:eb:80:fc:0e:b9:10:7f:af:9b:98:
         d2:55:68:3d:51:7b:8f:a1:5d:20:07:34:6d:14:49:7e:af:31:
         73:16:d2:b2:a5:2e:25:09:6d:0a:c3:79:a2:c0:50:21:56:28:
         7b:09:33:c5
-----BEGIN CERTIFICATE-----
MIIDJDCCAgwCAhAEMA0GCSqGSIb3DQEBCwUAME8xCzAJBgNVBAYTAlVTMRMwEQYD
VQQIDApDYWxpZm9ybmlhMREwDwYDVQQKDAhJbnRlcnNldDEYMBYGA1UEAwwPSW50
ZXJtZWRpYXRlLWNhMB4XDTE4MDkyMTExNTcwMloXDTE5MDkyMTExNTcwMlowYDEL
MAkGA1UEBhMCVVMxEzARBgNVBAgMCkNhbGlmb3JuaWExETAPBgNVBAoMCEludGVy
c2V0MSkwJwYDVQQDDCBjZGg1MTMtaTU1Mi1mcmJueTA0LmludGVyc2V0LmNvbTCC
ASIwDQYJKoZIhvcNAQEBBQADggEPADCCAQoCggEBAMMx3frrIvcicMNs/iSB1P4x
yVkgPlh15eyXY4talzhSTA4WLhqrg3KD6jGVKcaSGTplNK+Q52ep31yOcifTJJOQ
isENRMq294+T2CknC5Jf3A3ld75xvyS/4/TJUYUmymdJuiuflHkmK3rn/smWOeG2
vKIHc3P3HPI127bNbqO7kOb5YgYkik4y+Kk7P4ZslWNX00OxL2HeC9qhSMCw9aN9
AkbkGyAKUb8ClT3Mezl05iUfZDJMCLOOXoI9DPI/R5jC8JsI1ZgiPe9xAeBgmk2P
zvLgDJ7DRqvKaOTmL1Bp3znW0vO189tA3HCXTJT2MZxjHHfxh9KE/8nCsfiCBKsC
AwEAATANBgkqhkiG9w0BAQsFAAOCAQEAQSsAkVggEnED52kbim8stEWENPsniv15
gGKxvZtu8lB3XFr98Pn6IB2g2WzbF/UINJG7zxC1ByyS/M4WZ7LTkLUq9chvBoRm
boIFf7acMl5BjIAbI5Al2Y++RqzRbmnNK2QZKMa+dh2uiGnTmLuRlHmRr2EqMLQ1
o/jB+Wai6/rM3vy5fDeyj8Yqi3D/DP7mZ/fxUO5q6rvkLMQMPJBV18sX6dUkm73E
EKwZ5KXa6cR0DQOcAn5Z1gBSi6BL65D0P3DFtgkp/8hJg+Ji77PrgPwOuRB/r5uY
0lVoPVF7j6FdIAc0bRRJfq8xcxbSsqUuJQltCsN5osBQIVYoewkzxQ==
-----END CERTIFICATE-----

Certificate:
    Data:
        Version: 1 (0x0)
        Serial Number: 4101 (0x1005)
    Signature Algorithm: sha256WithRSAEncryption
        Issuer: C=US, ST=California, O=Interset, CN=Intermediate-ca
        Validity
            Not Before: Sep 21 11:57:03 2018 GMT
            Not After : Sep 21 11:57:03 2019 GMT
        Subject: C=US, ST=California, O=Interset, CN=cdh513-i552-frbny05.interset.com
        Subject Public Key Info:
            Public Key Algorithm: rsaEncryption
                Public-Key: (2048 bit)
                Modulus:
                    00:b6:0a:4b:0e:8b:c5:30:f5:f2:5c:1f:58:62:b2:
                    88:57:f3:07:70:72:5d:5e:15:d2:28:79:3d:eb:00:
                    a5:fb:c6:9b:68:82:f7:d5:fd:32:63:34:97:9a:c7:
                    4a:e6:ac:62:e0:71:1e:ac:07:6d:a4:74:d7:2f:59:
                    f1:8c:4e:87:89:eb:ea:02:9f:9a:93:df:a4:a1:98:
                    70:ae:eb:f1:23:8b:f9:f6:d0:04:60:b4:b4:10:1e:
                    4a:23:c2:89:ef:58:38:90:2a:3c:40:f3:04:3d:60:
                    af:cf:3b:53:b5:ed:9b:5e:da:3d:40:39:a2:e8:19:
                    af:97:00:bb:7d:d5:2e:18:86:5a:d4:83:d7:b2:98:
                    32:54:36:a2:24:6c:03:66:95:2c:bf:6a:98:3d:0e:
                    2b:eb:4d:3e:68:d3:da:d8:18:5f:22:9e:02:4a:72:
                    d5:0b:4c:9d:58:8c:a7:dc:33:c4:ee:b6:a4:8d:2e:
                    b8:64:47:43:55:87:b9:ae:5d:b0:16:b9:fb:64:17:
                    2d:ed:d2:f2:da:91:56:c5:58:b5:e6:7d:ad:41:ee:
                    34:00:62:e4:ef:53:f8:64:ff:09:a7:2a:78:8a:4b:
                    a1:6b:aa:14:48:6c:51:78:69:06:36:1c:6f:bd:d4:
                    91:eb:bd:32:9a:74:1f:12:02:91:b2:63:c6:4b:78:
                    ca:61
                Exponent: 65537 (0x10001)
    Signature Algorithm: sha256WithRSAEncryption
         17:0b:7b:f8:4b:f9:4b:8e:05:8c:75:62:b7:8f:fb:fb:0b:bc:
         0d:35:65:8a:76:c8:c6:1d:36:70:f6:c4:b5:42:94:9b:8e:9b:
         dd:fd:62:51:90:a8:9c:c9:89:40:b1:a6:8d:a6:74:18:bc:7c:
         69:ea:cc:91:55:a8:fc:fa:13:b3:68:2b:a9:d6:68:48:61:cb:
         15:8f:1c:b1:62:ad:42:1d:69:82:8e:33:fb:6c:1f:4e:55:60:
         36:78:3d:a4:c9:0b:34:d7:e2:8b:ac:6a:37:da:28:82:01:55:
         da:29:6c:dd:3e:39:a1:d2:fc:b4:a7:1a:7d:fe:d1:67:eb:4d:
         c3:ab:70:c0:c5:8b:6f:46:ab:8e:88:52:3b:52:2b:65:04:dc:
         43:de:09:b7:b3:ba:42:43:e3:b6:0c:70:bc:50:46:b3:6a:f4:
         79:3d:f3:9c:81:7d:dc:72:e7:3f:0b:34:c9:34:ed:fb:68:17:
         01:10:21:3b:28:ae:d8:9d:19:85:ca:fa:73:be:07:78:01:87:
         38:16:d0:34:71:f5:54:75:39:e5:11:d0:33:51:89:28:a1:d5:
         f1:ee:85:9c:c5:05:33:f1:b6:95:50:95:ca:ea:14:be:ba:be:
         c3:14:7c:b1:ff:f6:e3:66:fa:84:24:89:e8:21:de:9a:1f:d4:
         a5:68:22:b1
-----BEGIN CERTIFICATE-----
MIIDJDCCAgwCAhAFMA0GCSqGSIb3DQEBCwUAME8xCzAJBgNVBAYTAlVTMRMwEQYD
VQQIDApDYWxpZm9ybmlhMREwDwYDVQQKDAhJbnRlcnNldDEYMBYGA1UEAwwPSW50
ZXJtZWRpYXRlLWNhMB4XDTE4MDkyMTExNTcwM1oXDTE5MDkyMTExNTcwM1owYDEL
MAkGA1UEBhMCVVMxEzARBgNVBAgMCkNhbGlmb3JuaWExETAPBgNVBAoMCEludGVy
c2V0MSkwJwYDVQQDDCBjZGg1MTMtaTU1Mi1mcmJueTA1LmludGVyc2V0LmNvbTCC
ASIwDQYJKoZIhvcNAQEBBQADggEPADCCAQoCggEBALYKSw6LxTD18lwfWGKyiFfz
B3ByXV4V0ih5PesApfvGm2iC99X9MmM0l5rHSuasYuBxHqwHbaR01y9Z8YxOh4nr
6gKfmpPfpKGYcK7r8SOL+fbQBGC0tBAeSiPCie9YOJAqPEDzBD1gr887U7Xtm17a
PUA5ougZr5cAu33VLhiGWtSD17KYMlQ2oiRsA2aVLL9qmD0OK+tNPmjT2tgYXyKe
Akpy1QtMnViMp9wzxO62pI0uuGRHQ1WHua5dsBa5+2QXLe3S8tqRVsVYteZ9rUHu
NABi5O9T+GT/CacqeIpLoWuqFEhsUXhpBjYcb73Ukeu9Mpp0HxICkbJjxkt4ymEC
AwEAATANBgkqhkiG9w0BAQsFAAOCAQEAFwt7+Ev5S44FjHVit4/7+wu8DTVlinbI
xh02cPbEtUKUm46b3f1iUZConMmJQLGmjaZ0GLx8aerMkVWo/PoTs2grqdZoSGHL
FY8csWKtQh1pgo4z+2wfTlVgNng9pMkLNNfii6xqN9ooggFV2ils3T45odL8tKca
ff7RZ+tNw6twwMWLb0arjohSO1IrZQTcQ94Jt7O6QkPjtgxwvFBGs2r0eT3znIF9
3HLnPws0yTTt+2gXARAhOyiu2J0Zhcr6c74HeAGHOBbQNHH1VHU55RHQM1GJKKHV
8e6FnMUFM/G2lVCVyuoUvrq+wxR8sf/242b6hCSJ6CHemh/UpWgisQ==
-----END CERTIFICATE-----

