Certificate:
    Data:
        Version: 1 (0x0)
        Serial Number: 4100 (0x1004)
    Signature Algorithm: sha256WithRSAEncryption
        Issuer: C=US, ST=California, O=Interset, CN=Intermediate-ca
        Validity
            Not Before: Sep 21 11:57:02 2018 GMT
            Not After : Sep 21 11:57:02 2019 GMT
        Subject: C=US, ST=California, O=Interset, CN=cdh513-i552-frbny04.interset.com
        Subject Public Key Info:
            Public Key Algorithm: rsaEncryption
                Public-Key: (2048 bit)
                Modulus:
                    00:c3:31:dd:fa:eb:22:f7:22:70:c3:6c:fe:24:81:
                    d4:fe:31:c9:59:20:3e:58:75:e5:ec:97:63:8b:5a:
                    97:38:52:4c:0e:16:2e:1a:ab:83:72:83:ea:31:95:
                    29:c6:92:19:3a:65:34:af:90:e7:67:a9:df:5c:8e:
                    72:27:d3:24:93:90:8a:c1:0d:44:ca:b6:f7:8f:93:
                    d8:29:27:0b:92:5f:dc:0d:e5:77:be:71:bf:24:bf:
                    e3:f4:c9:51:85:26:ca:67:49:ba:2b:9f:94:79:26:
                    2b:7a:e7:fe:c9:96:39:e1:b6:bc:a2:07:73:73:f7:
                    1c:f2:35:db:b6:cd:6e:a3:bb:90:e6:f9:62:06:24:
                    8a:4e:32:f8:a9:3b:3f:86:6c:95:63:57:d3:43:b1:
                    2f:61:de:0b:da:a1:48:c0:b0:f5:a3:7d:02:46:e4:
                    1b:20:0a:51:bf:02:95:3d:cc:7b:39:74:e6:25:1f:
                    64:32:4c:08:b3:8e:5e:82:3d:0c:f2:3f:47:98:c2:
                    f0:9b:08:d5:98:22:3d:ef:71:01:e0:60:9a:4d:8f:
                    ce:f2:e0:0c:9e:c3:46:ab:ca:68:e4:e6:2f:50:69:
                    df:39:d6:d2:f3:b5:f3:db:40:dc:70:97:4c:94:f6:
                    31:9c:63:1c:77:f1:87:d2:84:ff:c9:c2:b1:f8:82:
                    04:ab
                Exponent: 65537 (0x10001)
    Signature Algorithm: sha256WithRSAEncryption
         41:2b:00:91:58:20:12:71:03:e7:69:1b:8a:6f:2c:b4:45:84:
         34:fb:27:8a:fd:79:80:62:b1:bd:9b:6e:f2:50:77:5c:5a:fd:
         f0:f9:fa:20:1d:a0:d9:6c:db:17:f5:08:34:91:bb:cf:10:b5:
         07:2c:92:fc:ce:16:67:b2:d3:90:b5:2a:f5:c8:6f:06:84:66:
         6e:82:05:7f:b6:9c:32:5e:41:8c:80:1b:23:90:25:d9:8f:be:
         46:ac:d1:6e:69:cd:2b:64:19:28:c6:be:76:1d:ae:88:69:d3:
         98:bb:91:94:79:91:af:61:2a:30:b4:35:a3:f8:c1:f9:66:a2:
         eb:fa:cc:de:fc:b9:7c:37:b2:8f:c6:2a:8b:70:ff:0c:fe:e6:
         67:f7:f1:50:ee:6a:ea:bb:e4:2c:c4:0c:3c:90:55:d7:cb:17:
         e9:d5:24:9b:bd:c4:10:ac:19:e4:a5:da:e9:c4:74:0d:03:9c:
         02:7e:59:d6:00:52:8b:a0:4b:eb:90:f4:3f:70:c5:b6:09:29:
         ff:c8:49:83:e2:62:ef:b3:eb:80:fc:0e:b9:10:7f:af:9b:98:
         d2:55:68:3d:51:7b:8f:a1:5d:20:07:34:6d:14:49:7e:af:31:
         73:16:d2:b2:a5:2e:25:09:6d:0a:c3:79:a2:c0:50:21:56:28:
         7b:09:33:c5
-----BEGIN CERTIFICATE-----
MIIDJDCCAgwCAhAEMA0GCSqGSIb3DQEBCwUAME8xCzAJBgNVBAYTAlVTMRMwEQYD
VQQIDApDYWxpZm9ybmlhMREwDwYDVQQKDAhJbnRlcnNldDEYMBYGA1UEAwwPSW50
ZXJtZWRpYXRlLWNhMB4XDTE4MDkyMTExNTcwMloXDTE5MDkyMTExNTcwMlowYDEL
MAkGA1UEBhMCVVMxEzARBgNVBAgMCkNhbGlmb3JuaWExETAPBgNVBAoMCEludGVy
c2V0MSkwJwYDVQQDDCBjZGg1MTMtaTU1Mi1mcmJueTA0LmludGVyc2V0LmNvbTCC
ASIwDQYJKoZIhvcNAQEBBQADggEPADCCAQoCggEBAMMx3frrIvcicMNs/iSB1P4x
yVkgPlh15eyXY4talzhSTA4WLhqrg3KD6jGVKcaSGTplNK+Q52ep31yOcifTJJOQ
isENRMq294+T2CknC5Jf3A3ld75xvyS/4/TJUYUmymdJuiuflHkmK3rn/smWOeG2
vKIHc3P3HPI127bNbqO7kOb5YgYkik4y+Kk7P4ZslWNX00OxL2HeC9qhSMCw9aN9
AkbkGyAKUb8ClT3Mezl05iUfZDJMCLOOXoI9DPI/R5jC8JsI1ZgiPe9xAeBgmk2P
zvLgDJ7DRqvKaOTmL1Bp3znW0vO189tA3HCXTJT2MZxjHHfxh9KE/8nCsfiCBKsC
AwEAATANBgkqhkiG9w0BAQsFAAOCAQEAQSsAkVggEnED52kbim8stEWENPsniv15
gGKxvZtu8lB3XFr98Pn6IB2g2WzbF/UINJG7zxC1ByyS/M4WZ7LTkLUq9chvBoRm
boIFf7acMl5BjIAbI5Al2Y++RqzRbmnNK2QZKMa+dh2uiGnTmLuRlHmRr2EqMLQ1
o/jB+Wai6/rM3vy5fDeyj8Yqi3D/DP7mZ/fxUO5q6rvkLMQMPJBV18sX6dUkm73E
EKwZ5KXa6cR0DQOcAn5Z1gBSi6BL65D0P3DFtgkp/8hJg+Ji77PrgPwOuRB/r5uY
0lVoPVF7j6FdIAc0bRRJfq8xcxbSsqUuJQltCsN5osBQIVYoewkzxQ==
-----END CERTIFICATE-----
-----BEGIN CERTIFICATE-----
MIIDMzCCAhugAwIBAgICEAAwDQYJKoZIhvcNAQELBQAwWDELMAkGA1UEBhMCVVMx
EzARBgNVBAgMCkNhbGlmb3JuaWExDzANBgNVBAcMBklydmluZTERMA8GA1UECgwI
SW50ZXJzZXQxEDAOBgNVBAMMB1Jvb3QtY2EwHhcNMTgwOTIxMTE1NjU3WhcNMTkw
OTIxMTE1NjU3WjBPMQswCQYDVQQGEwJVUzETMBEGA1UECAwKQ2FsaWZvcm5pYTER
MA8GA1UECgwISW50ZXJzZXQxGDAWBgNVBAMMD0ludGVybWVkaWF0ZS1jYTCCASIw
DQYJKoZIhvcNAQEBBQADggEPADCCAQoCggEBAMZbQ3kmwMttxJdlQHOkYm1dUgZp
9lM3bgcIqBKlI3tDMjWoBtEEromE9kohwdWY9zVmhCtPGktw1hx21ldyEf4b+xh1
a3Y2q6vBGZhezcGq73xDfbA+DjfXrZZ7SKs1D0qBfohThrL+mpxCCW6oNB5WKMeA
G1SvaIj0ZIa6PWYlr45WezuKaWLwyhDQHPqtntL4c7oGTFOWR9sG04Bw8YkcudJA
1KJ2sKZqcHk7XBvFfvaJv5/DMQfIj8XTHVQxaF/4m0gvVLUq68U9Pd1fTdDTVzZ7
tb1zDV1yKAWFlCv9Hndp5XAZKUC0J+2BEy9cz53bl+i4Iq9jHad7IRZ2mSECAwEA
AaMQMA4wDAYDVR0TBAUwAwEB/zANBgkqhkiG9w0BAQsFAAOCAQEApKaawitY79JX
g6eeUMscNNV9FZlMw6fH7xSMPnPo7gF2yO9JYs36HAsho1p1PFpfvzfLIonDOHva
Se1fZjxI0Tq8zn7axOIvexreP4ctBdWMaFXGHzF5pU8YR/jYIUTzdJASaImZER9c
hrB5VwnGJJkJ0LDJMuTRIFGO2yIvqpYe8CuC2h1GbNZX62+4AX4Tu9ILoR/JAAxL
lbSRe+afL281G/k/HdmHwH2rTYMvtnqAqHyedvFLQldCqrT2JZs/A+FtKjPbdGvk
FhDHpEM/t5N4NAf6s2qp5QqlfVEF9/6VLA9tKup+VF/zD9LRtJyUuy1Jv6Uaau8O
j1vvgaDqVg==
-----END CERTIFICATE-----
-----BEGIN CERTIFICATE-----
MIIDQzCCAiugAwIBAgIJAJavyoKughTIMA0GCSqGSIb3DQEBCwUAMFgxCzAJBgNV
BAYTAlVTMRMwEQYDVQQIDApDYWxpZm9ybmlhMQ8wDQYDVQQHDAZJcnZpbmUxETAP
BgNVBAoMCEludGVyc2V0MRAwDgYDVQQDDAdSb290LWNhMB4XDTE4MDkyMTExNTY1
N1oXDTI4MDkxODExNTY1N1owWDELMAkGA1UEBhMCVVMxEzARBgNVBAgMCkNhbGlm
b3JuaWExDzANBgNVBAcMBklydmluZTERMA8GA1UECgwISW50ZXJzZXQxEDAOBgNV
BAMMB1Jvb3QtY2EwggEiMA0GCSqGSIb3DQEBAQUAA4IBDwAwggEKAoIBAQD1D1N2
4st4Pw2Qm5+uhETFlFKAhN06CVyQ0VhYGnhMJ6f/BJZpWGNDP5Jlxdwv0YcL4g1k
8sEFcu5rsxJ/bZDTQR5UdJTMIbvITLd8Nyjc/s2yRyY9O7hDa4+VacfouB8k0/dL
QCox2r16sMidUPwDlW7U6PNRz1gPwtXAIE2cMrtgrmx9WxdnvztRDIKKvGTXP5Kl
2DocpPqKk80cvQm2JPrSQCmAOQMtWQPgG7BL6nDfuPyZ3822j9Dbc4zroJ0Plgp8
h05fY+NGrNDypoOWtzPCJ9sUtkdgEmLAZxcbGDyNcqweRhYGuOp6HDAFiS2gd7rY
VprQOGds3mDHCiNPAgMBAAGjEDAOMAwGA1UdEwQFMAMBAf8wDQYJKoZIhvcNAQEL
BQADggEBADjBVdfIEzhgJNmb3up3Su5+D7XrxjLkD0okSQwvJP7oy3RiU73IbZEU
WU7IoLXxJsemI7Phdj0jpdeiV4ij5kU7XXUj5IrpAN9Z0yCJgqkcan/IcKn5tfng
ez0YOz8joRQRJPg4lDEudAodB7uUBdbUtVNeBuhxkG+Dw4H1B92Fe3VHAHn9h3bV
fZv7MEF9xoF2SB/4yxsjM30mBYF1a3cTT1Wj72fwePE9x5xvFQqd8M+HzBobF6bi
XAhZCSLNZGct/LW7Vjtm5ZHgJpqB856uvzWPML/AtJF3ArUcJE0cv0JW1Sb8GiNH
qVAKJJ7XJ8YIICL4kZEKjVdwtP4Oemc=
-----END CERTIFICATE-----
